target datalayout = "e-m:e-p270:32:32-p271:32:32-p272:64:64-i64:64-i128:128-f80:128-n8:16:32:64-S128"
target triple = "x86_64-pc-linux-gnu"

%struct.OSInfo = type { ptr, ptr, i8, ptr, i32, ptr, i32, ptr }
%struct.ClusterInfo = type { %struct.ControlData, ptr, %struct.DbInfoArr, ptr, ptr, ptr, ptr, ptr, i16, i32, [64 x i8], i32, ptr, i32 }
%struct.ControlData = type { i32, i32, [25 x i8], i32, i32, i32, i32, i32, i32, i32, i32, i32, i32, i32, i32, i32, i32, i32, i32, i8, i8, i32 }
%struct.DbInfoArr = type { ptr, i32 }

@os_info = external global %struct.OSInfo, align 8
@new_cluster = external global %struct.ClusterInfo, align 8
@.str.20 = private unnamed_addr constant [22 x i8] c"pg_upgrade_server.log\00", align 1
@.str.21 = private unnamed_addr constant [1 x i8] zeroinitializer, align 1
@old_cluster = external global %struct.ClusterInfo, align 8
@.str.28 = private unnamed_addr constant [39 x i8] c"\22%s/pg_ctl\22 -w -D \22%s\22 -o \22%s\22 %s stop\00", align 1
@.str.29 = private unnamed_addr constant [8 x i8] c"-m fast\00", align 1
@.str.30 = private unnamed_addr constant [9 x i8] c"-m smart\00", align 1

; Function Attrs: nounwind uwtable
define dso_local void @stop_postmaster(i1 noundef zeroext %0) #0 {
  %2 = alloca i8, align 1
  %3 = alloca ptr, align 8
  %4 = alloca i32, align 4
  %5 = zext i1 %0 to i8
  store i8 %5, ptr %2, align 1
  call void @llvm.lifetime.start.p0(i64 8, ptr %3) #9
  %6 = load ptr, ptr getelementptr inbounds nuw (%struct.OSInfo, ptr @os_info, i32 0, i32 7), align 8
  %7 = icmp eq ptr %6, @old_cluster
  br i1 %7, label %8, label %9

8:                                                ; preds = %1
  store ptr @old_cluster, ptr %3, align 8
  br label %15

9:                                                ; preds = %1
  %10 = load ptr, ptr getelementptr inbounds nuw (%struct.OSInfo, ptr @os_info, i32 0, i32 7), align 8
  %11 = icmp eq ptr %10, @new_cluster
  br i1 %11, label %12, label %13

12:                                               ; preds = %9
  store ptr @new_cluster, ptr %3, align 8
  br label %14

13:                                               ; preds = %9
  store i32 1, ptr %4, align 4
  br label %43

14:                                               ; preds = %12
  br label %15

15:                                               ; preds = %14, %8
  %16 = load i8, ptr %2, align 1, !range !4, !noundef !5
  %17 = trunc i8 %16 to i1
  %18 = xor i1 %17, true
  %19 = load i8, ptr %2, align 1, !range !4, !noundef !5
  %20 = trunc i8 %19 to i1
  %21 = xor i1 %20, true
  %22 = load ptr, ptr %3, align 8
  %23 = getelementptr inbounds nuw %struct.ClusterInfo, ptr %22, i32 0, i32 5
  %24 = load ptr, ptr %23, align 8
  %25 = load ptr, ptr %3, align 8
  %26 = getelementptr inbounds nuw %struct.ClusterInfo, ptr %25, i32 0, i32 4
  %27 = load ptr, ptr %26, align 8
  %28 = load ptr, ptr %3, align 8
  %29 = getelementptr inbounds nuw %struct.ClusterInfo, ptr %28, i32 0, i32 6
  %30 = load ptr, ptr %29, align 8
  %31 = icmp ne ptr %30, null
  br i1 %31, label %32, label %36

32:                                               ; preds = %15
  %33 = load ptr, ptr %3, align 8
  %34 = getelementptr inbounds nuw %struct.ClusterInfo, ptr %33, i32 0, i32 6
  %35 = load ptr, ptr %34, align 8
  br label %37

36:                                               ; preds = %15
  br label %37

37:                                               ; preds = %36, %32
  %38 = phi ptr [ %35, %32 ], [ @.str.21, %36 ]
  %39 = load i8, ptr %2, align 1, !range !4, !noundef !5
  %40 = trunc i8 %39 to i1
  %41 = select i1 %40, ptr @.str.29, ptr @.str.30
  %42 = call zeroext i1 (ptr, ptr, i1, i1, ptr, ...) @exec_prog(ptr noundef @.str.20, ptr noundef null, i1 noundef zeroext %18, i1 noundef zeroext %21, ptr noundef @.str.28, ptr noundef %24, ptr noundef %27, ptr noundef %38, ptr noundef %41)
  store ptr null, ptr getelementptr inbounds nuw (%struct.OSInfo, ptr @os_info, i32 0, i32 7), align 8
  store i32 0, ptr %4, align 4
  br label %43

43:                                               ; preds = %37, %13
  call void @llvm.lifetime.end.p0(i64 8, ptr %3) #9
  %44 = load i32, ptr %4, align 4
  switch i32 %44, label %46 [
    i32 0, label %45
    i32 1, label %45
  ]

45:                                               ; preds = %43, %43
  ret void

46:                                               ; preds = %43
  unreachable
}