; Function Attrs: nounwind uwtable
define dso_local void @stop_postmaster(i1 noundef zeroext %0) local_unnamed_addr #0 {
  %2 = load ptr, ptr getelementptr inbounds nuw (i8, ptr @os_info, i64 56), align 8
  %3 = icmp eq ptr %2, @old_cluster
  br i1 %3, label %6, label %4

4:                                                ; preds = %1
  %5 = icmp eq ptr %2, @new_cluster
  br i1 %5, label %6, label %16

6:                                                ; preds = %4, %1
  %.0 = phi ptr [ @old_cluster, %1 ], [ @new_cluster, %4 ]
  %7 = xor i1 %0, true
  %8 = getelementptr inbounds nuw i8, ptr %.0, i64 152
  %9 = load ptr, ptr %8, align 8
  %10 = getelementptr inbounds nuw i8, ptr %.0, i64 144
  %11 = load ptr, ptr %10, align 8
  %12 = getelementptr inbounds nuw i8, ptr %.0, i64 160
  %13 = load ptr, ptr %12, align 8
  %.not = icmp eq ptr %13, null
  %spec.select = select i1 %.not, ptr @.str.21, ptr %13
  %14 = select i1 %0, ptr @.str.29, ptr @.str.30
  %15 = tail call zeroext i1 (ptr, ptr, i1, i1, ptr, ...) @exec_prog(ptr noundef nonnull @.str.20, ptr noundef null, i1 noundef zeroext %7, i1 noundef zeroext %7, ptr noundef nonnull @.str.28, ptr noundef %9, ptr noundef %11, ptr noundef nonnull %spec.select, ptr noundef nonnull %14) #10
  store ptr null, ptr getelementptr inbounds nuw (i8, ptr @os_info, i64 56), align 8
  br label %16

16:                                               ; preds = %4, %6
  ret void
}